; Function Attrs: mustprogress uwtable
define noundef double @_ZNK8QuantLib13Fdm2DimSolver12derivativeXXEdd(ptr noundef nonnull align 8 dereferenceable(296) %this, double noundef %x, double noundef %y) local_unnamed_addr #9 align 2 {
entry:
  %vtable = load ptr, ptr %this, align 8, !tbaa !33
  %vfn = getelementptr inbounds i8, ptr %vtable, i64 24
  %0 = load ptr, ptr %vfn, align 8
  tail call void %0(ptr noundef nonnull align 8 dereferenceable(12) %this)
  %interpolation_ = getelementptr inbounds nuw i8, ptr %this, i64 280
  %1 = load ptr, ptr %interpolation_, align 8, !tbaa !135
  %cmp.not.i = icmp eq ptr %1, null
  br i1 %cmp.not.i, label %cond.false.i, label %_ZNK5boost10shared_ptrIN8QuantLib13BicubicSplineEEptEv.exit, !prof !51

cond.false.i:                                     ; preds = %entry
  tail call void @_ZN5boost16assertion_failedEPKcS1_S1_l(ptr noundef nonnull @.str.13, ptr noundef nonnull @__PRETTY_FUNCTION__._ZNK5boost10shared_ptrIN8QuantLib13BicubicSplineEEptEv, ptr noundef nonnull @.str.14, i64 noundef 784)
  %.pre.i = load ptr, ptr %interpolation_, align 8, !tbaa !135
  br label %_ZNK5boost10shared_ptrIN8QuantLib13BicubicSplineEEptEv.exit

_ZNK5boost10shared_ptrIN8QuantLib13BicubicSplineEEptEv.exit: ; preds = %entry, %cond.false.i
  %2 = phi ptr [ %1, %entry ], [ %.pre.i, %cond.false.i ]
  %call2 = tail call noundef double @_ZNK8QuantLib13BicubicSpline17secondDerivativeXEdd(ptr noundef nonnull align 8 dereferenceable(32) %2, double noundef %x, double noundef %y)
  ret double %call2
}